target datalayout = "e-m:e-p270:32:32-p271:32:32-p272:64:64-i64:64-i128:128-f80:128-n8:16:32:64-S128"
target triple = "x86_64-unknown-linux-gnu"

%"class.arrow::Status" = type { ptr }

@.str.15 = private unnamed_addr constant [18 x i8] c"thread.peak.reset\00", align 1
@.str.16 = private unnamed_addr constant [30 x i8] c"Failed resetting thread.peak.\00", align 1

; Function Attrs: mustprogress nounwind uwtable
define linkonce_odr void @_ZN5arrow6StatusC2Ev(ptr noundef nonnull align 8 dereferenceable(8) %this) unnamed_addr #1 comdat align 2 {
entry:
  %this.addr = alloca ptr, align 8
  store ptr %this, ptr %this.addr, align 8
  %this1 = load ptr, ptr %this.addr, align 8
  %state_ = getelementptr inbounds %"class.arrow::Status", ptr %this1, i32 0, i32 0
  store ptr null, ptr %state_, align 8
  ret void
}

; Function Attrs: mustprogress nounwind uwtable
define linkonce_odr void @_ZN5arrow6Status2OKEv(ptr noalias sret(%"class.arrow::Status") align 8 %agg.result) #1 comdat align 2 {
entry:
  %result.ptr = alloca ptr, align 8
  store ptr %agg.result, ptr %result.ptr, align 8
  call void @_ZN5arrow6StatusC2Ev(ptr noundef nonnull align 8 dereferenceable(8) %agg.result) #16
  ret void
}

; Function Attrs: mustprogress uwtable
define linkonce_odr void @_ZN5arrow8internal16IOErrorFromErrnoIJRA30_KcEEENS_6StatusEiDpOT_(ptr noalias sret(%"class.arrow::Status") align 8 %agg.result, i32 noundef %errnum, ptr noundef nonnull align 1 dereferenceable(30) %args) #0 comdat {
entry:
  %result.ptr = alloca ptr, align 8
  %errnum.addr = alloca i32, align 4
  %args.addr = alloca ptr, align 8
  store ptr %agg.result, ptr %result.ptr, align 8
  store i32 %errnum, ptr %errnum.addr, align 4
  store ptr %args, ptr %args.addr, align 8
  %0 = load i32, ptr %errnum.addr, align 4
  %1 = load ptr, ptr %args.addr, align 8
  call void @_ZN5arrow8internal15StatusFromErrnoIJRA30_KcEEENS_6StatusEiNS_10StatusCodeEDpOT_(ptr sret(%"class.arrow::Status") align 8 %agg.result, i32 noundef %0, i8 noundef signext 5, ptr noundef nonnull align 1 dereferenceable(30) %1)
  ret void
}

; Function Attrs: mustprogress uwtable
define void @_ZN5arrow19jemalloc_peak_resetEv(ptr noalias sret(%"class.arrow::Status") align 8 %agg.result) #0 {
entry:
  %result.ptr = alloca ptr, align 8
  %err = alloca i32, align 4
  store ptr %agg.result, ptr %result.ptr, align 8
  %call = call i32 @je_arrow_mallctl(ptr noundef @.str.15, ptr noundef null, ptr noundef null, ptr noundef null, i64 noundef 0) #16
  store i32 %call, ptr %err, align 4
  %0 = load i32, ptr %err, align 4
  %tobool = icmp ne i32 %0, 0
  br i1 %tobool, label %cond.true, label %cond.false

cond.true:                                        ; preds = %entry
  %1 = load i32, ptr %err, align 4
  call void @_ZN5arrow8internal16IOErrorFromErrnoIJRA30_KcEEENS_6StatusEiDpOT_(ptr sret(%"class.arrow::Status") align 8 %agg.result, i32 noundef %1, ptr noundef nonnull align 1 dereferenceable(30) @.str.16)
  br label %cond.end

cond.false:                                       ; preds = %entry
  call void @_ZN5arrow6Status2OKEv(ptr sret(%"class.arrow::Status") align 8 %agg.result)
  br label %cond.end

cond.end:                                         ; preds = %cond.false, %cond.true
  ret void
}