; Function Attrs: mustprogress uwtable
define void @_ZN5arrow19jemalloc_peak_resetEv(ptr noalias sret(%"class.arrow::Status") align 8 %agg.result) local_unnamed_addr #0 {
entry:
  %call = tail call i32 @je_arrow_mallctl(ptr noundef nonnull @.str.15, ptr noundef null, ptr noundef null, ptr noundef null, i64 noundef 0) #17
  %tobool.not = icmp eq i32 %call, 0
  br i1 %tobool.not, label %cond.false, label %cond.true

cond.true:                                        ; preds = %entry
  tail call void @_ZN5arrow8internal15StatusFromErrnoIJRA30_KcEEENS_6StatusEiNS_10StatusCodeEDpOT_(ptr sret(%"class.arrow::Status") align 8 %agg.result, i32 noundef %call, i8 noundef signext 5, ptr noundef nonnull align 1 dereferenceable(30) @.str.16)
  br label %cond.end

cond.false:                                       ; preds = %entry
  store ptr null, ptr %agg.result, align 8, !alias.scope !31
  br label %cond.end

cond.end:                                         ; preds = %cond.false, %cond.true
  ret void
}